; Function Attrs: nounwind uwtable
define hidden range(i32 0, 2) i32 @BN_bn2cbb_padded(ptr noundef %0, i64 noundef %1, ptr noundef %2) local_unnamed_addr #0 {
  %4 = alloca ptr, align 8
  call void @llvm.lifetime.start.p0(i64 8, ptr nonnull %4) #9
  %5 = call i32 @CBB_add_space(ptr noundef %0, ptr noundef nonnull %4, i64 noundef %1) #9
  %.not = icmp eq i32 %5, 0
  br i1 %.not, label %BN_bn2bin_padded.exit, label %6

6:                                                ; preds = %3
  %7 = load ptr, ptr %4, align 8, !tbaa !23
  %8 = call i32 @BN_is_zero(ptr noundef %2) #9
  %.not.i = icmp eq i32 %8, 0
  br i1 %.not.i, label %10, label %9

9:                                                ; preds = %6
  call void @llvm.memset.p0.i64(ptr align 1 %7, i8 0, i64 %1, i1 false)
  br label %BN_bn2bin_padded.exit

10:                                               ; preds = %6
  %11 = getelementptr inbounds nuw i8, ptr %2, i64 8
  %12 = load i32, ptr %11, align 8, !tbaa !6
  %13 = sext i32 %12 to i64
  %14 = add i64 %1, 7
  %15 = lshr i64 %14, 3
  %16 = icmp ult i64 %15, %13
  br i1 %16, label %BN_bn2bin_padded.exit, label %17

17:                                               ; preds = %10
  %18 = and i64 %1, 7
  %.not20.i = icmp eq i64 %18, 0
  br i1 %.not20.i, label %34, label %19

19:                                               ; preds = %17
  %20 = lshr i64 %1, 3
  %21 = load ptr, ptr %2, align 8, !tbaa !15
  %22 = getelementptr inbounds nuw i8, ptr %2, i64 12
  %23 = load i32, ptr %22, align 4, !tbaa !21
  %24 = sext i32 %23 to i64
  %25 = add nsw i32 %23, -1
  %26 = sext i32 %25 to i64
  %isneg.not.i.i = icmp slt i64 %20, %24
  %27 = select i1 %isneg.not.i.i, i64 %20, i64 %26
  %28 = getelementptr inbounds nuw i64, ptr %21, i64 %27
  %29 = load i64, ptr %28, align 8, !tbaa !16
  %30 = icmp samesign ult i64 %20, %13
  %31 = select i1 %30, i64 %29, i64 0
  %32 = shl nuw nsw i64 %18, 3
  %33 = lshr i64 %31, %32
  %.not21.i = icmp eq i64 %33, 0
  br i1 %.not21.i, label %.lr.ph.i, label %BN_bn2bin_padded.exit

34:                                               ; preds = %17
  %.not2224.i = icmp eq i64 %1, 0
  br i1 %.not2224.i, label %BN_bn2bin_padded.exit, label %.lr.ph.i

.lr.ph.i:                                         ; preds = %34, %19
  %35 = getelementptr inbounds nuw i8, ptr %2, i64 12
  br label %36

36:                                               ; preds = %36, %.lr.ph.i
  %.026.i = phi i64 [ %1, %.lr.ph.i ], [ %37, %36 ]
  %.01825.i = phi ptr [ %7, %.lr.ph.i ], [ %55, %36 ]
  %37 = add i64 %.026.i, -1
  %38 = lshr i64 %37, 3
  %39 = load ptr, ptr %2, align 8, !tbaa !15
  %40 = load i32, ptr %35, align 4, !tbaa !21
  %41 = sext i32 %40 to i64
  %42 = add nsw i32 %40, -1
  %43 = sext i32 %42 to i64
  %isneg.not.i23.i = icmp slt i64 %38, %41
  %44 = select i1 %isneg.not.i23.i, i64 %38, i64 %43
  %45 = getelementptr inbounds nuw i64, ptr %39, i64 %44
  %46 = load i64, ptr %45, align 8, !tbaa !16
  %47 = load i32, ptr %11, align 8, !tbaa !6
  %48 = sext i32 %47 to i64
  %49 = icmp slt i64 %38, %48
  %50 = select i1 %49, i64 %46, i64 0
  %51 = shl i64 %37, 3
  %52 = and i64 %51, 56
  %53 = lshr i64 %50, %52
  %54 = trunc i64 %53 to i8
  %55 = getelementptr inbounds nuw i8, ptr %.01825.i, i64 1
  store i8 %54, ptr %.01825.i, align 1, !tbaa !14
  %.not22.i = icmp eq i64 %37, 0
  br i1 %.not22.i, label %BN_bn2bin_padded.exit, label %36, !llvm.loop !22

BN_bn2bin_padded.exit:                            ; preds = %36, %34, %19, %10, %9, %3
  %56 = phi i32 [ 0, %3 ], [ 1, %9 ], [ 0, %10 ], [ 0, %19 ], [ 1, %34 ], [ 1, %36 ]
  call void @llvm.lifetime.end.p0(i64 8, ptr nonnull %4) #9
  ret i32 %56
}